(dp1
S'sort_id'
p2
NsS'sort_order'
p3
NsS'columns'
p4
(dp5
N(dp6
S'position'
p7
I0
sS'width'
p8
I20
ssS'Client'
p9
(dp10
g7
I2
sg8
I100
ssS'Address'
p11
(dp12
g7
I1
sg8
I100
ssS'Progress'
p13
(dp14
g7
I3
sg8
I100
ssS'Up Speed'
p15
(dp16
g7
I5
sg8
I1508
ssS'Down Speed'
p17
(dp18
g7
I4
sg8
I50
sss.