(dp1
S'sort_id'
p2
NsS'sort_order'
p3
NsS'columns'
p4
(dp5
S'Priority'
p6
(dp7
S'position'
p8
I3
sS'width'
p9
I1528
ssS'Progress'
p10
(dp11
g8
I2
sg9
I100
ssS'Size'
p12
(dp13
g8
I1
sg9
I50
ssS'Filename'
p14
(dp15
g8
I0
sg9
I200
sss.