(ideluge.core.torrentmanager
TorrentManagerState
p1
(dp2
S'torrents'
p3
(lp4
(ideluge.core.torrentmanager
TorrentState
p5
(dp6
S'max_download_speed'
p7
F-1
sS'move_completed_path'
p8
S'/home/sublime/Downloads/Torrents/Complete'
p9
sS'paused'
p10
I00
sS'max_upload_slots'
p11
I-1
sS'prioritize_first_last'
p12
I00
sS'max_connections'
p13
I-1
sS'compact'
p14
I00
sS'queue'
p15
I0
sS'file_priorities'
p16
(lp17
I1
aI1
aI1
aI1
aI1
aI1
aI1
aI1
aI1
aI1
aI1
aI1
aI1
aI1
aI1
aI1
aI1
aI1
aI1
aI1
aI1
aI1
aI1
aI1
aI1
aI1
aI1
aI1
aI1
aI1
aI1
aI1
aI1
aI1
aI1
aI1
aI1
aI1
aI1
aI1
aI1
aI1
aI1
aI1
aI1
aI1
aI1
aI1
aI1
aI1
aI1
aI1
aI1
aI1
aI1
aI1
aI1
aI1
aI1
aI1
aI1
aI1
aI1
aI1
aI1
aI1
aI1
aI1
aI1
aI1
aI1
aI1
aI1
aI1
aI1
asS'filename'
p18
S'[HorribleSubs] Ace of Diamond (01-75) [1080p] (Batch).torrent'
p19
sS'max_upload_speed'
p20
F-1
sS'save_path'
p21
S'/home/sublime/Downloads/Torrents/Incomplete'
p22
sS'time_added'
p23
I-1
sS'total_uploaded'
p24
I1101636038
sS'torrent_id'
p25
S'2b267a8a69a01d825e1e029dbe97bb8390b6c4e0'
p26
sS'auto_managed'
p27
I01
sS'stop_at_ratio'
p28
I00
sS'move_completed'
p29
I01
sS'trackers'
p30
(lp31
(dp32
S'send_stats'
p33
I01
sS'fails'
p34
I0
sS'verified'
p35
I00
sS'scrape_incomplete'
p36
I-1
sS'min_announce'
p37
NsS'scrape_downloaded'
p38
I-1
sS'url'
p39
S'http://nyaa.tracker.wf:7777/announce'
p40
sS'last_error'
p41
(dp42
S'category'
p43
S'system'
p44
sS'value'
p45
I0
ssS'fail_limit'
p46
I0
sS'next_announce'
p47
NsS'complete_sent'
p48
I00
sS'source'
p49
I1
sS'trackerid'
p50
S''
sS'start_sent'
p51
I00
sS'tier'
p52
I0
sS'scrape_complete'
p53
I-1
sS'message'
p54
S''
sS'updating'
p55
I00
sa(dp56
S'send_stats'
p57
I01
sS'fails'
p58
I0
sS'verified'
p59
I00
sS'scrape_incomplete'
p60
I-1
sS'min_announce'
p61
NsS'scrape_downloaded'
p62
I-1
sS'url'
p63
S'http://open.nyaatorrents.info:6544/announce'
p64
sS'last_error'
p65
(dp66
S'category'
p67
S'system'
p68
sS'value'
p69
I0
ssS'fail_limit'
p70
I0
sS'next_announce'
p71
NsS'complete_sent'
p72
I00
sS'source'
p73
I1
sS'trackerid'
p74
S''
sS'start_sent'
p75
I00
sS'tier'
p76
I1
sS'scrape_complete'
p77
I-1
sS'message'
p78
S''
sS'updating'
p79
I00
sa(dp80
S'send_stats'
p81
I01
sS'fails'
p82
I0
sS'verified'
p83
I00
sS'scrape_incomplete'
p84
I-1
sS'min_announce'
p85
NsS'scrape_downloaded'
p86
I-1
sS'url'
p87
S'udp://open.demonii.com:1337/announce'
p88
sS'last_error'
p89
(dp90
S'category'
p91
S'system'
p92
sS'value'
p93
I0
ssS'fail_limit'
p94
I0
sS'next_announce'
p95
NsS'complete_sent'
p96
I00
sS'source'
p97
I1
sS'trackerid'
p98
S''
sS'start_sent'
p99
I00
sS'tier'
p100
I2
sS'scrape_complete'
p101
I-1
sS'message'
p102
S''
sS'updating'
p103
I00
sa(dp104
S'send_stats'
p105
I01
sS'fails'
p106
I0
sS'verified'
p107
I00
sS'scrape_incomplete'
p108
I-1
sS'min_announce'
p109
NsS'scrape_downloaded'
p110
I-1
sS'url'
p111
S'udp://tracker.openbittorrent.com:80/announce'
p112
sS'last_error'
p113
(dp114
S'category'
p115
S'system'
p116
sS'value'
p117
I0
ssS'fail_limit'
p118
I0
sS'next_announce'
p119
NsS'complete_sent'
p120
I00
sS'source'
p121
I1
sS'trackerid'
p122
S''
sS'start_sent'
p123
I00
sS'tier'
p124
I3
sS'scrape_complete'
p125
I-1
sS'message'
p126
S''
sS'updating'
p127
I00
sa(dp128
S'send_stats'
p129
I01
sS'fails'
p130
I0
sS'verified'
p131
I00
sS'scrape_incomplete'
p132
I-1
sS'min_announce'
p133
NsS'scrape_downloaded'
p134
I-1
sS'url'
p135
S'udp://open.stealth.si:80/announce'
p136
sS'last_error'
p137
(dp138
S'category'
p139
S'system'
p140
sS'value'
p141
I0
ssS'fail_limit'
p142
I0
sS'next_announce'
p143
NsS'complete_sent'
p144
I00
sS'source'
p145
I1
sS'trackerid'
p146
S''
sS'start_sent'
p147
I00
sS'tier'
p148
I4
sS'scrape_complete'
p149
I-1
sS'message'
p150
S''
sS'updating'
p151
I00
sa(dp152
S'send_stats'
p153
I01
sS'fails'
p154
I0
sS'verified'
p155
I00
sS'scrape_incomplete'
p156
I-1
sS'min_announce'
p157
NsS'scrape_downloaded'
p158
I-1
sS'url'
p159
S'udp://tracker.opentrackr.org:1337/announce'
p160
sS'last_error'
p161
(dp162
S'category'
p163
S'system'
p164
sS'value'
p165
I0
ssS'fail_limit'
p166
I0
sS'next_announce'
p167
NsS'complete_sent'
p168
I00
sS'source'
p169
I1
sS'trackerid'
p170
S''
sS'start_sent'
p171
I00
sS'tier'
p172
I5
sS'scrape_complete'
p173
I-1
sS'message'
p174
S''
sS'updating'
p175
I00
sa(dp176
S'send_stats'
p177
I01
sS'fails'
p178
I0
sS'verified'
p179
I00
sS'scrape_incomplete'
p180
I-1
sS'min_announce'
p181
NsS'scrape_downloaded'
p182
I-1
sS'url'
p183
S'udp://tracker.coppersurfer.tk:6969/announce'
p184
sS'last_error'
p185
(dp186
S'category'
p187
S'system'
p188
sS'value'
p189
I0
ssS'fail_limit'
p190
I0
sS'next_announce'
p191
NsS'complete_sent'
p192
I00
sS'source'
p193
I1
sS'trackerid'
p194
S''
sS'start_sent'
p195
I00
sS'tier'
p196
I6
sS'scrape_complete'
p197
I-1
sS'message'
p198
S''
sS'updating'
p199
I00
sa(dp200
S'send_stats'
p201
I01
sS'fails'
p202
I0
sS'verified'
p203
I00
sS'scrape_incomplete'
p204
I-1
sS'min_announce'
p205
NsS'scrape_downloaded'
p206
I-1
sS'url'
p207
S'udp://tracker.leechers-paradise.org:6969/announce'
p208
sS'last_error'
p209
(dp210
S'category'
p211
S'system'
p212
sS'value'
p213
I0
ssS'fail_limit'
p214
I0
sS'next_announce'
p215
NsS'complete_sent'
p216
I00
sS'source'
p217
I1
sS'trackerid'
p218
S''
sS'start_sent'
p219
I00
sS'tier'
p220
I7
sS'scrape_complete'
p221
I-1
sS'message'
p222
S''
sS'updating'
p223
I00
sasS'magnet'
p224
NsS'remove_at_ratio'
p225
I00
sS'stop_ratio'
p226
F2
sS'is_finished'
p227
I00
sba(ideluge.core.torrentmanager
TorrentState
p228
(dp229
g7
F-1
sg8
S'/home/sublime/Downloads/Torrents/Complete'
p230
sg10
I00
sg11
I-1
sg12
I00
sg13
I-1
sg14
I00
sg15
I3
sg16
(lp231
I1
aI1
aI1
aI1
aI1
aI1
aI1
aI1
aI1
aI1
aI1
aI1
aI1
aI1
aI1
aI1
aI1
aI1
aI1
aI1
aI1
aI1
aI1
aI1
aI1
aI1
aI1
aI1
aI1
aI1
aI1
aI1
aI1
aI1
aI1
aI1
aI1
aI1
aI1
aI1
aI1
aI1
aI1
aI1
aI1
aI1
aI1
aI1
aI1
aI1
asg18
S'[HorribleSubs] Tribe Cool Crew (01-50) [1080p] (Batch).torrent'
p232
sg20
F-1
sg21
S'/home/sublime/Downloads/Torrents/Incomplete'
p233
sg23
I-1
sg24
I646404293
sg25
S'd861341f937c586ad564fcaf6af4032a72f0ee9d'
p234
sg27
I01
sg28
I00
sg29
I01
sg30
(lp235
(dp236
S'send_stats'
p237
I01
sS'fails'
p238
I0
sS'verified'
p239
I00
sS'scrape_incomplete'
p240
I-1
sS'min_announce'
p241
NsS'scrape_downloaded'
p242
I-1
sS'url'
p243
S'http://nyaa.tracker.wf:7777/announce'
p244
sS'last_error'
p245
(dp246
S'category'
p247
S'system'
p248
sS'value'
p249
I0
ssS'fail_limit'
p250
I0
sS'next_announce'
p251
NsS'complete_sent'
p252
I00
sS'source'
p253
I1
sS'trackerid'
p254
S''
sS'start_sent'
p255
I00
sS'tier'
p256
I0
sS'scrape_complete'
p257
I-1
sS'message'
p258
S''
sS'updating'
p259
I00
sa(dp260
S'send_stats'
p261
I01
sS'fails'
p262
I0
sS'verified'
p263
I00
sS'scrape_incomplete'
p264
I-1
sS'min_announce'
p265
NsS'scrape_downloaded'
p266
I-1
sS'url'
p267
S'http://open.nyaatorrents.info:6544/announce'
p268
sS'last_error'
p269
(dp270
S'category'
p271
S'system'
p272
sS'value'
p273
I0
ssS'fail_limit'
p274
I0
sS'next_announce'
p275
NsS'complete_sent'
p276
I00
sS'source'
p277
I1
sS'trackerid'
p278
S''
sS'start_sent'
p279
I00
sS'tier'
p280
I1
sS'scrape_complete'
p281
I-1
sS'message'
p282
S''
sS'updating'
p283
I00
sa(dp284
S'send_stats'
p285
I01
sS'fails'
p286
I0
sS'verified'
p287
I00
sS'scrape_incomplete'
p288
I-1
sS'min_announce'
p289
NsS'scrape_downloaded'
p290
I-1
sS'url'
p291
S'udp://tracker.publicbt.com:80/announce'
p292
sS'last_error'
p293
(dp294
S'category'
p295
S'system'
p296
sS'value'
p297
I0
ssS'fail_limit'
p298
I0
sS'next_announce'
p299
NsS'complete_sent'
p300
I00
sS'source'
p301
I1
sS'trackerid'
p302
S''
sS'start_sent'
p303
I00
sS'tier'
p304
I2
sS'scrape_complete'
p305
I-1
sS'message'
p306
S''
sS'updating'
p307
I00
sa(dp308
S'send_stats'
p309
I01
sS'fails'
p310
I0
sS'verified'
p311
I00
sS'scrape_incomplete'
p312
I-1
sS'min_announce'
p313
NsS'scrape_downloaded'
p314
I-1
sS'url'
p315
S'udp://tracker.openbittorrent.com:80/announce'
p316
sS'last_error'
p317
(dp318
S'category'
p319
S'system'
p320
sS'value'
p321
I0
ssS'fail_limit'
p322
I0
sS'next_announce'
p323
NsS'complete_sent'
p324
I00
sS'source'
p325
I1
sS'trackerid'
p326
S''
sS'start_sent'
p327
I00
sS'tier'
p328
I3
sS'scrape_complete'
p329
I-1
sS'message'
p330
S''
sS'updating'
p331
I00
sa(dp332
S'send_stats'
p333
I01
sS'fails'
p334
I0
sS'verified'
p335
I00
sS'scrape_incomplete'
p336
I-1
sS'min_announce'
p337
NsS'scrape_downloaded'
p338
I-1
sS'url'
p339
S'udp://open.stealth.si:80/announce'
p340
sS'last_error'
p341
(dp342
S'category'
p343
S'system'
p344
sS'value'
p345
I0
ssS'fail_limit'
p346
I0
sS'next_announce'
p347
NsS'complete_sent'
p348
I00
sS'source'
p349
I1
sS'trackerid'
p350
S''
sS'start_sent'
p351
I00
sS'tier'
p352
I4
sS'scrape_complete'
p353
I-1
sS'message'
p354
S''
sS'updating'
p355
I00
sa(dp356
S'send_stats'
p357
I01
sS'fails'
p358
I0
sS'verified'
p359
I00
sS'scrape_incomplete'
p360
I-1
sS'min_announce'
p361
NsS'scrape_downloaded'
p362
I-1
sS'url'
p363
S'udp://tracker.opentrackr.org:1337/announce'
p364
sS'last_error'
p365
(dp366
S'category'
p367
S'system'
p368
sS'value'
p369
I0
ssS'fail_limit'
p370
I0
sS'next_announce'
p371
NsS'complete_sent'
p372
I00
sS'source'
p373
I1
sS'trackerid'
p374
S''
sS'start_sent'
p375
I00
sS'tier'
p376
I5
sS'scrape_complete'
p377
I-1
sS'message'
p378
S''
sS'updating'
p379
I00
sa(dp380
S'send_stats'
p381
I01
sS'fails'
p382
I0
sS'verified'
p383
I00
sS'scrape_incomplete'
p384
I-1
sS'min_announce'
p385
NsS'scrape_downloaded'
p386
I-1
sS'url'
p387
S'udp://tracker.coppersurfer.tk:6969/announce'
p388
sS'last_error'
p389
(dp390
S'category'
p391
S'system'
p392
sS'value'
p393
I0
ssS'fail_limit'
p394
I0
sS'next_announce'
p395
NsS'complete_sent'
p396
I00
sS'source'
p397
I1
sS'trackerid'
p398
S''
sS'start_sent'
p399
I00
sS'tier'
p400
I6
sS'scrape_complete'
p401
I-1
sS'message'
p402
S''
sS'updating'
p403
I00
sa(dp404
S'send_stats'
p405
I01
sS'fails'
p406
I0
sS'verified'
p407
I00
sS'scrape_incomplete'
p408
I-1
sS'min_announce'
p409
NsS'scrape_downloaded'
p410
I-1
sS'url'
p411
S'udp://tracker.leechers-paradise.org:6969/announce'
p412
sS'last_error'
p413
(dp414
S'category'
p415
S'system'
p416
sS'value'
p417
I0
ssS'fail_limit'
p418
I0
sS'next_announce'
p419
NsS'complete_sent'
p420
I00
sS'source'
p421
I1
sS'trackerid'
p422
S''
sS'start_sent'
p423
I00
sS'tier'
p424
I7
sS'scrape_complete'
p425
I-1
sS'message'
p426
S''
sS'updating'
p427
I00
sasg224
Nsg225
I00
sg226
F2
sg227
I00
sba(ideluge.core.torrentmanager
TorrentState
p428
(dp429
g7
F-1
sg8
S'/home/sublime/Downloads/Torrents/Complete'
p430
sg10
I00
sg11
I-1
sg12
I00
sg13
I-1
sg14
I00
sg15
I1
sg16
(lp431
I1
aI1
aI1
aI1
aI1
aI1
aI1
aI1
aI1
aI1
aI1
aI1
aI1
aI1
aI1
aI1
aI1
aI1
aI1
aI1
aI1
aI1
aI1
aI1
aI1
aI1
aI1
aI1
aI1
aI1
aI1
aI1
aI1
aI1
aI1
aI1
aI1
aI1
aI1
aI1
aI1
aI1
aI1
aI1
aI1
aI1
aI1
aI1
aI1
aI1
aI1
aI1
aI1
aI1
aI1
aI1
aI1
aI1
aI1
aI1
aI1
aI1
aI1
aI1
aI1
aI1
aI1
aI1
aI1
aI1
aI1
aI1
aI1
aI1
aI1
aI1
aI1
aI1
aI1
aI1
aI1
aI1
aI1
aI1
aI1
aI1
aI1
aI1
aI1
aI1
aI1
aI1
aI1
aI1
aI1
aI1
aI1
aI1
aI1
aI1
aI1
aI1
aI1
aI1
aI1
aI1
aI1
aI1
aI1
aI1
aI1
aI1
aI1
aI1
aI1
aI1
aI1
aI1
aI1
aI1
aI1
aI1
aI1
aI1
aI1
aI1
aI1
aI1
aI1
aI1
aI1
aI1
aI1
aI1
aI1
aI1
aI1
aI1
aI1
aI1
aI1
aI1
aI1
aI1
aI1
aI1
aI1
aI1
aI1
aI1
aI1
aI1
aI1
aI1
aI1
aI1
aI1
aI1
aI1
aI1
aI1
aI1
aI1
aI1
aI1
aI1
aI1
aI1
aI1
aI1
aI1
aI1
aI1
aI1
aI1
aI1
aI1
aI1
aI1
aI1
aI1
aI1
aI1
aI1
aI1
aI1
aI1
aI1
aI1
aI1
aI1
aI1
aI1
aI1
aI1
aI1
aI1
aI1
aI1
aI1
aI1
aI1
aI1
aI1
aI1
aI1
aI1
aI1
aI1
aI1
aI1
aI1
aI1
aI1
aI1
aI1
aI1
aI1
aI1
aI1
aI1
aI1
aI1
aI1
aI1
aI1
aI1
aI1
aI1
aI1
aI1
aI1
aI1
aI1
aI1
aI1
aI1
aI1
aI1
aI1
aI1
aI1
aI1
aI1
aI1
aI1
aI1
aI1
aI1
aI1
aI1
aI1
aI1
aI1
aI1
aI1
aI1
aI1
aI1
aI1
aI1
aI1
aI1
aI1
aI1
aI1
aI1
aI1
aI1
aI1
aI1
aI1
aI1
aI1
aI1
aI1
aI1
aI1
aI1
aI1
aI1
aI1
aI1
aI1
aI1
aI1
aI1
aI1
aI1
aI1
aI1
aI1
aI1
aI1
aI1
aI1
aI1
aI1
aI1
aI1
aI1
aI1
aI1
aI1
aI1
aI1
aI1
aI1
aI1
aI1
aI1
aI1
aI1
aI1
aI1
aI1
aI1
aI1
aI1
aI1
aI1
aI1
aI1
aI1
aI1
aI1
aI1
aI1
aI1
aI1
aI1
aI1
aI1
aI1
aI1
aI1
aI1
aI1
aI1
aI1
aI1
aI1
aI1
aI1
aI1
aI1
aI1
aI1
aI1
aI1
aI1
aI1
aI1
aI1
aI1
aI1
aI1
aI1
aI1
aI1
aI1
aI1
aI1
aI1
aI1
aI1
aI1
aI1
aI1
aI1
aI1
aI1
aI1
aI1
aI1
aI1
aI1
aI1
aI1
aI1
aI1
aI1
aI1
aI1
aI1
aI1
aI1
aI1
aI1
aI1
aI1
aI1
aI1
aI1
aI1
aI1
aI1
aI1
aI1
aI1
aI1
aI1
aI1
aI1
aI1
aI1
aI1
aI1
aI1
aI1
aI1
aI1
aI1
aI1
aI1
aI1
aI1
aI1
aI1
aI1
aI1
aI1
aI1
aI1
aI1
aI1
aI1
aI1
aI1
aI1
aI1
aI1
aI1
aI1
aI1
aI1
aI1
aI1
aI1
aI1
aI1
aI1
aI1
aI1
aI1
aI1
aI1
aI1
aI1
aI1
aI1
aI1
aI1
aI1
aI1
aI1
aI1
aI1
aI1
aI1
aI1
aI1
aI1
aI1
aI1
aI1
aI1
aI1
aI1
aI1
aI1
aI1
aI1
aI1
aI1
aI1
aI1
aI1
aI1
aI1
aI1
aI1
aI1
aI1
aI1
aI1
aI1
aI1
aI1
aI1
aI1
aI1
aI1
aI1
aI1
aI1
aI1
aI1
aI1
aI1
aI1
aI1
aI1
aI1
aI1
aI1
aI1
aI1
aI1
aI1
aI1
aI1
aI1
aI1
aI1
aI1
aI1
aI1
aI1
aI1
aI1
aI1
aI1
aI1
aI1
aI1
aI1
aI1
aI1
aI1
aI1
aI1
aI1
aI1
aI1
aI1
aI1
aI1
aI1
aI1
aI1
aI1
aI1
aI1
aI1
aI1
aI1
aI1
aI1
aI1
aI1
aI1
aI1
aI1
aI1
aI1
aI1
aI1
aI1
aI1
aI1
aI1
aI1
aI1
aI1
aI1
aI1
aI1
aI1
aI1
aI1
aI1
aI1
aI1
aI1
aI1
aI1
aI1
aI1
aI1
aI1
aI1
aI1
aI1
aI1
aI1
aI1
aI1
aI1
aI1
aI1
aI1
aI1
aI1
aI1
aI1
aI1
aI1
aI1
aI1
aI1
aI1
aI1
aI1
aI1
aI1
aI1
aI1
aI1
aI1
aI1
aI1
aI1
aI1
aI1
aI1
aI1
aI1
aI1
aI1
aI1
aI1
aI1
aI1
aI1
aI1
aI1
aI1
aI1
aI1
aI1
aI1
aI1
aI1
aI1
aI1
aI1
aI1
aI1
aI1
aI1
aI1
aI1
aI1
aI1
aI1
aI1
aI1
aI1
aI1
aI1
aI1
aI1
aI1
aI1
aI1
aI1
aI1
aI1
aI1
aI1
aI1
aI1
aI1
aI1
aI1
aI1
aI1
aI1
aI1
aI1
aI1
aI1
aI1
aI1
aI1
aI1
aI1
aI1
aI1
aI1
aI1
aI1
aI1
aI1
aI1
aI1
aI1
aI1
aI1
aI1
aI1
aI1
aI1
aI1
aI1
aI1
aI1
aI1
aI1
asg18
S'[HorribleSubs] One Piece (01-700) [1080p] (Batch).torrent'
p432
sg20
F-1
sg21
S'/home/sublime/Downloads/Torrents/Incomplete'
p433
sg23
I-1
sg24
I15119503627
sg25
S'871c23676ffa5c82d937668c28fbe0a52f04c7c9'
p434
sg27
I01
sg28
I00
sg29
I01
sg30
(lp435
(dp436
S'send_stats'
p437
I01
sS'fails'
p438
I0
sS'verified'
p439
I00
sS'scrape_incomplete'
p440
I-1
sS'min_announce'
p441
NsS'scrape_downloaded'
p442
I-1
sS'url'
p443
S'http://nyaa.tracker.wf:7777/announce'
p444
sS'last_error'
p445
(dp446
S'category'
p447
S'system'
p448
sS'value'
p449
I0
ssS'fail_limit'
p450
I0
sS'next_announce'
p451
NsS'complete_sent'
p452
I00
sS'source'
p453
I1
sS'trackerid'
p454
S''
sS'start_sent'
p455
I00
sS'tier'
p456
I0
sS'scrape_complete'
p457
I-1
sS'message'
p458
S''
sS'updating'
p459
I00
sa(dp460
S'send_stats'
p461
I01
sS'fails'
p462
I0
sS'verified'
p463
I00
sS'scrape_incomplete'
p464
I-1
sS'min_announce'
p465
NsS'scrape_downloaded'
p466
I-1
sS'url'
p467
S'http://open.nyaatorrents.info:6544/announce'
p468
sS'last_error'
p469
(dp470
S'category'
p471
S'system'
p472
sS'value'
p473
I0
ssS'fail_limit'
p474
I0
sS'next_announce'
p475
NsS'complete_sent'
p476
I00
sS'source'
p477
I1
sS'trackerid'
p478
S''
sS'start_sent'
p479
I00
sS'tier'
p480
I1
sS'scrape_complete'
p481
I-1
sS'message'
p482
S''
sS'updating'
p483
I00
sa(dp484
S'send_stats'
p485
I01
sS'fails'
p486
I0
sS'verified'
p487
I00
sS'scrape_incomplete'
p488
I-1
sS'min_announce'
p489
NsS'scrape_downloaded'
p490
I-1
sS'url'
p491
S'udp://open.demonii.com:1337/announce'
p492
sS'last_error'
p493
(dp494
S'category'
p495
S'system'
p496
sS'value'
p497
I0
ssS'fail_limit'
p498
I0
sS'next_announce'
p499
NsS'complete_sent'
p500
I00
sS'source'
p501
I1
sS'trackerid'
p502
S''
sS'start_sent'
p503
I00
sS'tier'
p504
I2
sS'scrape_complete'
p505
I-1
sS'message'
p506
S''
sS'updating'
p507
I00
sa(dp508
S'send_stats'
p509
I01
sS'fails'
p510
I0
sS'verified'
p511
I00
sS'scrape_incomplete'
p512
I-1
sS'min_announce'
p513
NsS'scrape_downloaded'
p514
I-1
sS'url'
p515
S'udp://tracker.openbittorrent.com:80/announce'
p516
sS'last_error'
p517
(dp518
S'category'
p519
S'system'
p520
sS'value'
p521
I0
ssS'fail_limit'
p522
I0
sS'next_announce'
p523
NsS'complete_sent'
p524
I00
sS'source'
p525
I1
sS'trackerid'
p526
S''
sS'start_sent'
p527
I00
sS'tier'
p528
I3
sS'scrape_complete'
p529
I-1
sS'message'
p530
S''
sS'updating'
p531
I00
sa(dp532
S'send_stats'
p533
I01
sS'fails'
p534
I0
sS'verified'
p535
I00
sS'scrape_incomplete'
p536
I-1
sS'min_announce'
p537
NsS'scrape_downloaded'
p538
I-1
sS'url'
p539
S'udp://open.stealth.si:80/announce'
p540
sS'last_error'
p541
(dp542
S'category'
p543
S'system'
p544
sS'value'
p545
I0
ssS'fail_limit'
p546
I0
sS'next_announce'
p547
NsS'complete_sent'
p548
I00
sS'source'
p549
I1
sS'trackerid'
p550
S''
sS'start_sent'
p551
I00
sS'tier'
p552
I4
sS'scrape_complete'
p553
I-1
sS'message'
p554
S''
sS'updating'
p555
I00
sa(dp556
S'send_stats'
p557
I01
sS'fails'
p558
I0
sS'verified'
p559
I00
sS'scrape_incomplete'
p560
I-1
sS'min_announce'
p561
NsS'scrape_downloaded'
p562
I-1
sS'url'
p563
S'udp://tracker.opentrackr.org:1337/announce'
p564
sS'last_error'
p565
(dp566
S'category'
p567
S'system'
p568
sS'value'
p569
I0
ssS'fail_limit'
p570
I0
sS'next_announce'
p571
NsS'complete_sent'
p572
I00
sS'source'
p573
I1
sS'trackerid'
p574
S''
sS'start_sent'
p575
I00
sS'tier'
p576
I5
sS'scrape_complete'
p577
I-1
sS'message'
p578
S''
sS'updating'
p579
I00
sa(dp580
S'send_stats'
p581
I01
sS'fails'
p582
I0
sS'verified'
p583
I00
sS'scrape_incomplete'
p584
I-1
sS'min_announce'
p585
NsS'scrape_downloaded'
p586
I-1
sS'url'
p587
S'udp://tracker.coppersurfer.tk:6969/announce'
p588
sS'last_error'
p589
(dp590
S'category'
p591
S'system'
p592
sS'value'
p593
I0
ssS'fail_limit'
p594
I0
sS'next_announce'
p595
NsS'complete_sent'
p596
I00
sS'source'
p597
I1
sS'trackerid'
p598
S''
sS'start_sent'
p599
I00
sS'tier'
p600
I6
sS'scrape_complete'
p601
I-1
sS'message'
p602
S''
sS'updating'
p603
I00
sa(dp604
S'send_stats'
p605
I01
sS'fails'
p606
I0
sS'verified'
p607
I00
sS'scrape_incomplete'
p608
I-1
sS'min_announce'
p609
NsS'scrape_downloaded'
p610
I-1
sS'url'
p611
S'udp://tracker.leechers-paradise.org:6969/announce'
p612
sS'last_error'
p613
(dp614
S'category'
p615
S'system'
p616
sS'value'
p617
I0
ssS'fail_limit'
p618
I0
sS'next_announce'
p619
NsS'complete_sent'
p620
I00
sS'source'
p621
I1
sS'trackerid'
p622
S''
sS'start_sent'
p623
I00
sS'tier'
p624
I7
sS'scrape_complete'
p625
I-1
sS'message'
p626
S''
sS'updating'
p627
I00
sasg224
Nsg225
I00
sg226
F2
sg227
I00
sba(ideluge.core.torrentmanager
TorrentState
p628
(dp629
g7
F-1
sg8
S'/home/sublime/Downloads/Torrents/Complete'
p630
sg10
I00
sg11
I-1
sg12
I00
sg13
I-1
sg14
I00
sg15
I2
sg16
(lp631
I1
aI1
aI1
aI1
aI1
aI1
aI1
aI1
aI1
aI1
aI1
aI1
aI1
aI1
aI1
aI1
aI1
aI1
aI1
aI1
aI1
aI1
aI1
aI1
aI1
aI1
aI1
aI1
aI1
aI1
aI1
aI1
aI1
aI1
aI1
aI1
aI1
aI1
aI1
aI1
aI1
aI1
aI1
aI1
aI1
aI1
aI1
aI1
aI1
aI1
aI1
aI1
aI1
aI1
aI1
aI1
aI1
aI1
aI1
aI1
aI1
aI1
aI1
aI1
aI1
aI1
aI1
aI1
aI1
aI1
aI1
aI1
aI1
aI1
aI1
aI1
aI1
aI1
aI1
aI1
aI1
aI1
aI1
aI1
aI1
aI1
aI1
aI1
aI1
aI1
aI1
aI1
aI1
aI1
aI1
aI1
aI1
aI1
aI1
asg18
S'[HorribleSubs] Space Brothers (01-99) [1080p] (Batch).torrent'
p632
sg20
F-1
sg21
S'/home/sublime/Downloads/Torrents/Incomplete'
p633
sg23
I-1
sg24
I1078019876
sg25
S'80fd2a43aeee9d74df25b0d3e5d59889cd53645a'
p634
sg27
I01
sg28
I00
sg29
I01
sg30
(lp635
(dp636
S'send_stats'
p637
I01
sS'fails'
p638
I0
sS'verified'
p639
I00
sS'scrape_incomplete'
p640
I-1
sS'min_announce'
p641
NsS'scrape_downloaded'
p642
I-1
sS'url'
p643
S'http://nyaa.tracker.wf:7777/announce'
p644
sS'last_error'
p645
(dp646
S'category'
p647
S'system'
p648
sS'value'
p649
I0
ssS'fail_limit'
p650
I0
sS'next_announce'
p651
NsS'complete_sent'
p652
I00
sS'source'
p653
I1
sS'trackerid'
p654
S''
sS'start_sent'
p655
I00
sS'tier'
p656
I0
sS'scrape_complete'
p657
I-1
sS'message'
p658
S''
sS'updating'
p659
I00
sa(dp660
S'send_stats'
p661
I01
sS'fails'
p662
I0
sS'verified'
p663
I00
sS'scrape_incomplete'
p664
I-1
sS'min_announce'
p665
NsS'scrape_downloaded'
p666
I-1
sS'url'
p667
S'http://open.nyaatorrents.info:6544/announce'
p668
sS'last_error'
p669
(dp670
S'category'
p671
S'system'
p672
sS'value'
p673
I0
ssS'fail_limit'
p674
I0
sS'next_announce'
p675
NsS'complete_sent'
p676
I00
sS'source'
p677
I1
sS'trackerid'
p678
S''
sS'start_sent'
p679
I00
sS'tier'
p680
I1
sS'scrape_complete'
p681
I-1
sS'message'
p682
S''
sS'updating'
p683
I00
sa(dp684
S'send_stats'
p685
I01
sS'fails'
p686
I0
sS'verified'
p687
I00
sS'scrape_incomplete'
p688
I-1
sS'min_announce'
p689
NsS'scrape_downloaded'
p690
I-1
sS'url'
p691
S'udp://open.demonii.com:1337/announce'
p692
sS'last_error'
p693
(dp694
S'category'
p695
S'system'
p696
sS'value'
p697
I0
ssS'fail_limit'
p698
I0
sS'next_announce'
p699
NsS'complete_sent'
p700
I00
sS'source'
p701
I1
sS'trackerid'
p702
S''
sS'start_sent'
p703
I00
sS'tier'
p704
I2
sS'scrape_complete'
p705
I-1
sS'message'
p706
S''
sS'updating'
p707
I00
sa(dp708
S'send_stats'
p709
I01
sS'fails'
p710
I0
sS'verified'
p711
I00
sS'scrape_incomplete'
p712
I-1
sS'min_announce'
p713
NsS'scrape_downloaded'
p714
I-1
sS'url'
p715
S'udp://tracker.openbittorrent.com:80/announce'
p716
sS'last_error'
p717
(dp718
S'category'
p719
S'system'
p720
sS'value'
p721
I0
ssS'fail_limit'
p722
I0
sS'next_announce'
p723
NsS'complete_sent'
p724
I00
sS'source'
p725
I1
sS'trackerid'
p726
S''
sS'start_sent'
p727
I00
sS'tier'
p728
I3
sS'scrape_complete'
p729
I-1
sS'message'
p730
S''
sS'updating'
p731
I00
sa(dp732
S'send_stats'
p733
I01
sS'fails'
p734
I0
sS'verified'
p735
I00
sS'scrape_incomplete'
p736
I-1
sS'min_announce'
p737
NsS'scrape_downloaded'
p738
I-1
sS'url'
p739
S'udp://open.stealth.si:80/announce'
p740
sS'last_error'
p741
(dp742
S'category'
p743
S'system'
p744
sS'value'
p745
I0
ssS'fail_limit'
p746
I0
sS'next_announce'
p747
NsS'complete_sent'
p748
I00
sS'source'
p749
I1
sS'trackerid'
p750
S''
sS'start_sent'
p751
I00
sS'tier'
p752
I4
sS'scrape_complete'
p753
I-1
sS'message'
p754
S''
sS'updating'
p755
I00
sa(dp756
S'send_stats'
p757
I01
sS'fails'
p758
I0
sS'verified'
p759
I00
sS'scrape_incomplete'
p760
I-1
sS'min_announce'
p761
NsS'scrape_downloaded'
p762
I-1
sS'url'
p763
S'udp://tracker.opentrackr.org:1337/announce'
p764
sS'last_error'
p765
(dp766
S'category'
p767
S'system'
p768
sS'value'
p769
I0
ssS'fail_limit'
p770
I0
sS'next_announce'
p771
NsS'complete_sent'
p772
I00
sS'source'
p773
I1
sS'trackerid'
p774
S''
sS'start_sent'
p775
I00
sS'tier'
p776
I5
sS'scrape_complete'
p777
I-1
sS'message'
p778
S''
sS'updating'
p779
I00
sa(dp780
S'send_stats'
p781
I01
sS'fails'
p782
I0
sS'verified'
p783
I00
sS'scrape_incomplete'
p784
I-1
sS'min_announce'
p785
NsS'scrape_downloaded'
p786
I-1
sS'url'
p787
S'udp://tracker.coppersurfer.tk:6969/announce'
p788
sS'last_error'
p789
(dp790
S'category'
p791
S'system'
p792
sS'value'
p793
I0
ssS'fail_limit'
p794
I0
sS'next_announce'
p795
NsS'complete_sent'
p796
I00
sS'source'
p797
I1
sS'trackerid'
p798
S''
sS'start_sent'
p799
I00
sS'tier'
p800
I6
sS'scrape_complete'
p801
I-1
sS'message'
p802
S''
sS'updating'
p803
I00
sa(dp804
S'send_stats'
p805
I01
sS'fails'
p806
I0
sS'verified'
p807
I00
sS'scrape_incomplete'
p808
I-1
sS'min_announce'
p809
NsS'scrape_downloaded'
p810
I-1
sS'url'
p811
S'udp://tracker.leechers-paradise.org:6969/announce'
p812
sS'last_error'
p813
(dp814
S'category'
p815
S'system'
p816
sS'value'
p817
I0
ssS'fail_limit'
p818
I0
sS'next_announce'
p819
NsS'complete_sent'
p820
I00
sS'source'
p821
I1
sS'trackerid'
p822
S''
sS'start_sent'
p823
I00
sS'tier'
p824
I7
sS'scrape_complete'
p825
I-1
sS'message'
p826
S''
sS'updating'
p827
I00
sasg224
Nsg225
I00
sg226
F2
sg227
I00
sbasb.